(dp0
S'cluster2'
p1
(dp2
S'd4'
p3
(dp4
S'node'
p5
S'b'
p6
sS'ip'
p7
S'11.0.0.12'
p8
sS'rate'
p9
S'c1'
p10
ssS'd3'
p11
(dp12
g5
S'a'
p13
sg7
S'11.0.0.11'
p14
sg9
S'c2'
p15
sssS'cluster1'
p16
(dp17
S'd2'
p18
(dp19
g5
g6
sg7
S'10.0.0.12'
p20
sg9
g10
ssS'd1'
p21
(dp22
g5
g13
sg7
S'10.0.0.11'
p23
sg9
g15
sss.