(dp0
S'cluster8'
p1
(dp2
S'd29'
p3
(dp4
S'node'
p5
S'a'
p6
sS'ip'
p7
S'17.0.0.11'
p8
sS'rate'
p9
S'c2'
p10
ssS'd32'
p11
(dp12
g5
S'd'
p13
sg7
S'17.0.0.14'
p14
sg9
S'c3'
p15
ssS'd30'
p16
(dp17
g5
S'b'
p18
sg7
S'17.0.0.12'
p19
sg9
g10
ssS'd31'
p20
(dp21
g5
S'c'
p22
sg7
S'17.0.0.13'
p23
sg9
S'c1'
p24
sssS'cluster2'
p25
(dp26
S'd6'
p27
(dp28
g5
g18
sg7
S'11.0.0.12'
p29
sg9
g10
ssS'd7'
p30
(dp31
g5
g22
sg7
S'11.0.0.13'
p32
sg9
g24
ssS'd5'
p33
(dp34
g5
g6
sg7
S'11.0.0.11'
p35
sg9
g10
ssS'd8'
p36
(dp37
g5
g13
sg7
S'11.0.0.14'
p38
sg9
g15
sssS'cluster3'
p39
(dp40
S'd10'
p41
(dp42
g5
g18
sg7
S'12.0.0.12'
p43
sg9
g10
ssS'd11'
p44
(dp45
g5
g22
sg7
S'12.0.0.13'
p46
sg9
g24
ssS'd12'
p47
(dp48
g5
g13
sg7
S'12.0.0.14'
p49
sg9
g15
ssS'd9'
p50
(dp51
g5
g6
sg7
S'12.0.0.11'
p52
sg9
g10
sssS'cluster1'
p53
(dp54
S'd4'
p55
(dp56
g5
g13
sg7
S'10.0.0.14'
p57
sg9
g15
ssS'd2'
p58
(dp59
g5
g18
sg7
S'10.0.0.12'
p60
sg9
g10
ssS'd3'
p61
(dp62
g5
g22
sg7
S'10.0.0.13'
p63
sg9
g24
ssS'd1'
p64
(dp65
g5
g6
sg7
S'10.0.0.11'
p66
sg9
g10
sssS'cluster6'
p67
(dp68
S'd21'
p69
(dp70
g5
g6
sg7
S'15.0.0.11'
p71
sg9
g10
ssS'd23'
p72
(dp73
g5
g22
sg7
S'15.0.0.13'
p74
sg9
g24
ssS'd22'
p75
(dp76
g5
g18
sg7
S'15.0.0.12'
p77
sg9
g10
ssS'd24'
p78
(dp79
g5
g13
sg7
S'15.0.0.14'
p80
sg9
g15
sssS'cluster7'
p81
(dp82
S'd28'
p83
(dp84
g5
g13
sg7
S'16.0.0.14'
p85
sg9
g15
ssS'd25'
p86
(dp87
g5
g6
sg7
S'16.0.0.11'
p88
sg9
g10
ssS'd27'
p89
(dp90
g5
g22
sg7
S'16.0.0.13'
p91
sg9
g24
ssS'd26'
p92
(dp93
g5
g18
sg7
S'16.0.0.12'
p94
sg9
g10
sssS'cluster4'
p95
(dp96
S'd14'
p97
(dp98
g5
g18
sg7
S'13.0.0.12'
p99
sg9
g10
ssS'd15'
p100
(dp101
g5
g22
sg7
S'13.0.0.13'
p102
sg9
g24
ssS'd16'
p103
(dp104
g5
g13
sg7
S'13.0.0.14'
p105
sg9
g15
ssS'd13'
p106
(dp107
g5
g6
sg7
S'13.0.0.11'
p108
sg9
g10
sssS'cluster5'
p109
(dp110
S'd20'
p111
(dp112
g5
g13
sg7
S'14.0.0.14'
p113
sg9
g15
ssS'd17'
p114
(dp115
g5
g6
sg7
S'14.0.0.11'
p116
sg9
g10
ssS'd18'
p117
(dp118
g5
g18
sg7
S'14.0.0.12'
p119
sg9
g10
ssS'd19'
p120
(dp121
g5
g22
sg7
S'14.0.0.13'
p122
sg9
g24
sss.