(dp0
S'cluster10'
p1
(dp2
S'd55'
p3
(dp4
S'node'
p5
S'a'
p6
sS'ip'
p7
S'19.0.0.11'
p8
sS'rate'
p9
S'c2'
p10
ssS'd58'
p11
(dp12
g5
S'd'
p13
sg7
S'19.0.0.14'
p14
sg9
S'c3'
p15
ssS'd59'
p16
(dp17
g5
S'e'
p18
sg7
S'19.0.0.15'
p19
sg9
g10
ssS'd60'
p20
(dp21
g5
S'f'
p22
sg7
S'19.0.0.16'
p23
sg9
g10
ssS'd56'
p24
(dp25
g5
S'b'
p26
sg7
S'19.0.0.12'
p27
sg9
g10
ssS'd57'
p28
(dp29
g5
S'c'
p30
sg7
S'19.0.0.13'
p31
sg9
S'c1'
p32
sssS'cluster8'
p33
(dp34
S'd48'
p35
(dp36
g5
g22
sg7
S'17.0.0.16'
p37
sg9
g10
ssS'd43'
p38
(dp39
g5
g6
sg7
S'17.0.0.11'
p40
sg9
g10
ssS'd47'
p41
(dp42
g5
g18
sg7
S'17.0.0.15'
p43
sg9
g10
ssS'd46'
p44
(dp45
g5
g13
sg7
S'17.0.0.14'
p46
sg9
g15
ssS'd45'
p47
(dp48
g5
g30
sg7
S'17.0.0.13'
p49
sg9
g32
ssS'd44'
p50
(dp51
g5
g26
sg7
S'17.0.0.12'
p52
sg9
g10
sssS'cluster9'
p53
(dp54
S'd49'
p55
(dp56
g5
g6
sg7
S'18.0.0.11'
p57
sg9
g10
ssS'd50'
p58
(dp59
g5
g26
sg7
S'18.0.0.12'
p60
sg9
g10
ssS'd51'
p61
(dp62
g5
g30
sg7
S'18.0.0.13'
p63
sg9
g32
ssS'd52'
p64
(dp65
g5
g13
sg7
S'18.0.0.14'
p66
sg9
g15
ssS'd53'
p67
(dp68
g5
g18
sg7
S'18.0.0.15'
p69
sg9
g10
ssS'd54'
p70
(dp71
g5
g22
sg7
S'18.0.0.16'
p72
sg9
g10
sssS'cluster2'
p73
(dp74
S'd10'
p75
(dp76
g5
g13
sg7
S'11.0.0.14'
p77
sg9
g15
ssS'd11'
p78
(dp79
g5
g18
sg7
S'11.0.0.15'
p80
sg9
g10
ssS'd12'
p81
(dp82
g5
g22
sg7
S'11.0.0.16'
p83
sg9
g10
ssS'd8'
p84
(dp85
g5
g26
sg7
S'11.0.0.12'
p86
sg9
g10
ssS'd9'
p87
(dp88
g5
g30
sg7
S'11.0.0.13'
p89
sg9
g32
ssS'd7'
p90
(dp91
g5
g6
sg7
S'11.0.0.11'
p92
sg9
g10
sssS'cluster3'
p93
(dp94
S'd14'
p95
(dp96
g5
g26
sg7
S'12.0.0.12'
p97
sg9
g10
ssS'd15'
p98
(dp99
g5
g30
sg7
S'12.0.0.13'
p100
sg9
g32
ssS'd16'
p101
(dp102
g5
g13
sg7
S'12.0.0.14'
p103
sg9
g15
ssS'd17'
p104
(dp105
g5
g18
sg7
S'12.0.0.15'
p106
sg9
g10
ssS'd13'
p107
(dp108
g5
g6
sg7
S'12.0.0.11'
p109
sg9
g10
ssS'd18'
p110
(dp111
g5
g22
sg7
S'12.0.0.16'
p112
sg9
g10
sssS'cluster1'
p113
(dp114
S'd6'
p115
(dp116
g5
g22
sg7
S'10.0.0.16'
p117
sg9
g10
ssS'd4'
p118
(dp119
g5
g13
sg7
S'10.0.0.14'
p120
sg9
g15
ssS'd5'
p121
(dp122
g5
g18
sg7
S'10.0.0.15'
p123
sg9
g10
ssS'd2'
p124
(dp125
g5
g26
sg7
S'10.0.0.12'
p126
sg9
g10
ssS'd3'
p127
(dp128
g5
g30
sg7
S'10.0.0.13'
p129
sg9
g32
ssS'd1'
p130
(dp131
g5
g6
sg7
S'10.0.0.11'
p132
sg9
g10
sssS'cluster6'
p133
(dp134
S'd36'
p135
(dp136
g5
g22
sg7
S'15.0.0.16'
p137
sg9
g10
ssS'd34'
p138
(dp139
g5
g13
sg7
S'15.0.0.14'
p140
sg9
g15
ssS'd35'
p141
(dp142
g5
g18
sg7
S'15.0.0.15'
p143
sg9
g10
ssS'd32'
p144
(dp145
g5
g26
sg7
S'15.0.0.12'
p146
sg9
g10
ssS'd33'
p147
(dp148
g5
g30
sg7
S'15.0.0.13'
p149
sg9
g32
ssS'd31'
p150
(dp151
g5
g6
sg7
S'15.0.0.11'
p152
sg9
g10
sssS'cluster7'
p153
(dp154
S'd38'
p155
(dp156
g5
g26
sg7
S'16.0.0.12'
p157
sg9
g10
ssS'd39'
p158
(dp159
g5
g30
sg7
S'16.0.0.13'
p160
sg9
g32
ssS'd37'
p161
(dp162
g5
g6
sg7
S'16.0.0.11'
p163
sg9
g10
ssS'd42'
p164
(dp165
g5
g22
sg7
S'16.0.0.16'
p166
sg9
g10
ssS'd41'
p167
(dp168
g5
g18
sg7
S'16.0.0.15'
p169
sg9
g10
ssS'd40'
p170
(dp171
g5
g13
sg7
S'16.0.0.14'
p172
sg9
g15
sssS'cluster4'
p173
(dp174
S'd21'
p175
(dp176
g5
g30
sg7
S'13.0.0.13'
p177
sg9
g32
ssS'd20'
p178
(dp179
g5
g26
sg7
S'13.0.0.12'
p180
sg9
g10
ssS'd23'
p181
(dp182
g5
g18
sg7
S'13.0.0.15'
p183
sg9
g10
ssS'd22'
p184
(dp185
g5
g13
sg7
S'13.0.0.14'
p186
sg9
g15
ssS'd19'
p187
(dp188
g5
g6
sg7
S'13.0.0.11'
p189
sg9
g10
ssS'd24'
p190
(dp191
g5
g22
sg7
S'13.0.0.16'
p192
sg9
g10
sssS'cluster5'
p193
(dp194
S'd29'
p195
(dp196
g5
g18
sg7
S'14.0.0.15'
p197
sg9
g10
ssS'd28'
p198
(dp199
g5
g13
sg7
S'14.0.0.14'
p200
sg9
g15
ssS'd25'
p201
(dp202
g5
g6
sg7
S'14.0.0.11'
p203
sg9
g10
ssS'd30'
p204
(dp205
g5
g22
sg7
S'14.0.0.16'
p206
sg9
g10
ssS'd26'
p207
(dp208
g5
g26
sg7
S'14.0.0.12'
p209
sg9
g10
ssS'd27'
p210
(dp211
g5
g30
sg7
S'14.0.0.13'
p212
sg9
g32
sss.