(dp0
S'cluster2'
p1
(dp2
S'd6'
p3
(dp4
S'node'
p5
S'a'
p6
sS'ip'
p7
S'11.0.0.11'
p8
sS'rate'
p9
S'c2'
p10
ssS'd7'
p11
(dp12
g5
S'b'
p13
sg7
S'11.0.0.12'
p14
sg9
g10
ssS'd10'
p15
(dp16
g5
S'e'
p17
sg7
S'11.0.0.15'
p18
sg9
S'c3'
p19
ssS'd8'
p20
(dp21
g5
S'c'
p22
sg7
S'11.0.0.13'
p23
sg9
S'c1'
p24
ssS'd9'
p25
(dp26
g5
S'd'
p27
sg7
S'11.0.0.14'
p28
sg9
g19
sssS'cluster3'
p29
(dp30
S'd14'
p31
(dp32
g5
g27
sg7
S'12.0.0.14'
p33
sg9
g19
ssS'd15'
p34
(dp35
g5
g17
sg7
S'12.0.0.15'
p36
sg9
g19
ssS'd11'
p37
(dp38
g5
g6
sg7
S'12.0.0.11'
p39
sg9
g10
ssS'd12'
p40
(dp41
g5
g13
sg7
S'12.0.0.12'
p42
sg9
g10
ssS'd13'
p43
(dp44
g5
g22
sg7
S'12.0.0.13'
p45
sg9
g24
sssS'cluster1'
p46
(dp47
S'd4'
p48
(dp49
g5
g27
sg7
S'10.0.0.14'
p50
sg9
g19
ssS'd5'
p51
(dp52
g5
g17
sg7
S'10.0.0.15'
p53
sg9
g19
ssS'd2'
p54
(dp55
g5
g13
sg7
S'10.0.0.12'
p56
sg9
g10
ssS'd3'
p57
(dp58
g5
g22
sg7
S'10.0.0.13'
p59
sg9
g24
ssS'd1'
p60
(dp61
g5
g6
sg7
S'10.0.0.11'
p62
sg9
g10
sssS'cluster6'
p63
(dp64
S'd29'
p65
(dp66
g5
g27
sg7
S'15.0.0.14'
p67
sg9
g19
ssS'd28'
p68
(dp69
g5
g22
sg7
S'15.0.0.13'
p70
sg9
g24
ssS'd30'
p71
(dp72
g5
g17
sg7
S'15.0.0.15'
p73
sg9
g19
ssS'd27'
p74
(dp75
g5
g13
sg7
S'15.0.0.12'
p76
sg9
g10
ssS'd26'
p77
(dp78
g5
g6
sg7
S'15.0.0.11'
p79
sg9
g10
sssS'cluster4'
p80
(dp81
S'd20'
p82
(dp83
g5
g17
sg7
S'13.0.0.15'
p84
sg9
g19
ssS'd16'
p85
(dp86
g5
g6
sg7
S'13.0.0.11'
p87
sg9
g10
ssS'd17'
p88
(dp89
g5
g13
sg7
S'13.0.0.12'
p90
sg9
g10
ssS'd18'
p91
(dp92
g5
g22
sg7
S'13.0.0.13'
p93
sg9
g24
ssS'd19'
p94
(dp95
g5
g27
sg7
S'13.0.0.14'
p96
sg9
g19
sssS'cluster5'
p97
(dp98
S'd21'
p99
(dp100
g5
g6
sg7
S'14.0.0.11'
p101
sg9
g10
ssS'd23'
p102
(dp103
g5
g22
sg7
S'14.0.0.13'
p104
sg9
g24
ssS'd22'
p105
(dp106
g5
g13
sg7
S'14.0.0.12'
p107
sg9
g10
ssS'd25'
p108
(dp109
g5
g17
sg7
S'14.0.0.15'
p110
sg9
g19
ssS'd24'
p111
(dp112
g5
g27
sg7
S'14.0.0.14'
p113
sg9
g19
sss.