(dp0
S'cluster2'
p1
(dp2
S'd6'
p3
(dp4
S'node'
p5
S'c'
p6
sS'ip'
p7
S'11.0.0.13'
p8
sS'rate'
p9
S'c1'
p10
ssS'd4'
p11
(dp12
g5
S'a'
p13
sg7
S'11.0.0.11'
p14
sg9
S'c2'
p15
ssS'd5'
p16
(dp17
g5
S'b'
p18
sg7
S'11.0.0.12'
p19
sg9
g15
sssS'cluster1'
p20
(dp21
S'd2'
p22
(dp23
g5
g18
sg7
S'10.0.0.12'
p24
sg9
g15
ssS'd3'
p25
(dp26
g5
g6
sg7
S'10.0.0.13'
p27
sg9
g10
ssS'd1'
p28
(dp29
g5
g13
sg7
S'10.0.0.11'
p30
sg9
g15
sss.